target datalayout = "e-m:e-p270:32:32-p271:32:32-p272:64:64-i64:64-i128:128-f80:128-n8:16:32:64-S128"
target triple = "x86_64-pc-linux-gnu"

%"class.base::PersistentSampleMap" = type { %"class.base::HistogramSamples", %"class.std::map", ptr, ptr }
%"class.base::HistogramSamples" = type { ptr, %"struct.base::HistogramSamples::Metadata", ptr }
%"struct.base::HistogramSamples::Metadata" = type <{ i64, i64, i32, [4 x i8] }>
%"class.std::map" = type { %"class.std::_Rb_tree" }
%"class.std::_Rb_tree" = type { %"struct.std::_Rb_tree<int, std::pair<const int, int *>, std::_Select1st<std::pair<const int, int *>>, std::less<int>>::_Rb_tree_impl" }
%"struct.std::_Rb_tree<int, std::pair<const int, int *>, std::_Select1st<std::pair<const int, int *>>, std::less<int>>::_Rb_tree_impl" = type { [8 x i8], %"struct.std::_Rb_tree_header" }
%"struct.std::_Rb_tree_header" = type { %"struct.std::_Rb_tree_node_base", i64 }
%"struct.std::_Rb_tree_node_base" = type { i32, ptr, ptr, ptr }

; Function Attrs: mustprogress nounwind uwtable
define linkonce_odr noundef i64 @_ZNK4base16HistogramSamples2idEv(ptr noundef nonnull align 8 dereferenceable(40) %0) #2 comdat align 2 {
  %2 = alloca ptr, align 8
  store ptr %0, ptr %2, align 8, !tbaa !87
  %3 = load ptr, ptr %2, align 8
  %4 = getelementptr inbounds nuw %"class.base::HistogramSamples", ptr %3, i32 0, i32 2
  %5 = load ptr, ptr %4, align 8, !tbaa !89
  %6 = getelementptr inbounds nuw %"struct.base::HistogramSamples::Metadata", ptr %5, i32 0, i32 0
  %7 = load i64, ptr %6, align 8, !tbaa !90
  ret i64 %7
}

; Function Attrs: mustprogress uwtable
define noundef ptr @_ZN4base19PersistentSampleMap10GetRecordsEv(ptr noundef nonnull align 8 dereferenceable(104) %0) #0 align 2 {
  %2 = alloca ptr, align 8
  store ptr %0, ptr %2, align 8, !tbaa !3
  %3 = load ptr, ptr %2, align 8
  %4 = getelementptr inbounds nuw %"class.base::PersistentSampleMap", ptr %3, i32 0, i32 3
  %5 = load ptr, ptr %4, align 8, !tbaa !31
  %6 = icmp ne ptr %5, null
  br i1 %6, label %13, label %7

7:                                                ; preds = %1
  %8 = getelementptr inbounds nuw %"class.base::PersistentSampleMap", ptr %3, i32 0, i32 2
  %9 = load ptr, ptr %8, align 8, !tbaa !16
  %10 = call noundef i64 @_ZNK4base16HistogramSamples2idEv(ptr noundef nonnull align 8 dereferenceable(40) %3)
  %11 = call noundef ptr @_ZN4base28PersistentHistogramAllocator19UseSampleMapRecordsEmPKv(ptr noundef nonnull align 8 dereferenceable(132) %9, i64 noundef %10, ptr noundef %3)
  %12 = getelementptr inbounds nuw %"class.base::PersistentSampleMap", ptr %3, i32 0, i32 3
  store ptr %11, ptr %12, align 8, !tbaa !31
  br label %13

13:                                               ; preds = %7, %1
  %14 = getelementptr inbounds nuw %"class.base::PersistentSampleMap", ptr %3, i32 0, i32 3
  %15 = load ptr, ptr %14, align 8, !tbaa !31
  ret ptr %15
}