; Function Attrs: mustprogress uwtable
define noundef ptr @_ZN4base19PersistentSampleMap10GetRecordsEv(ptr noundef nonnull align 8 dereferenceable(104) %0) local_unnamed_addr #0 align 2 {
  %2 = getelementptr inbounds nuw i8, ptr %0, i64 96
  %3 = load ptr, ptr %2, align 8, !tbaa !31
  %.not = icmp eq ptr %3, null
  br i1 %.not, label %4, label %11

4:                                                ; preds = %1
  %5 = getelementptr inbounds nuw i8, ptr %0, i64 88
  %6 = load ptr, ptr %5, align 8, !tbaa !18
  %7 = getelementptr inbounds nuw i8, ptr %0, i64 32
  %8 = load ptr, ptr %7, align 8, !tbaa !40
  %9 = load i64, ptr %8, align 8, !tbaa !41
  %10 = tail call noundef ptr @_ZN4base28PersistentHistogramAllocator19UseSampleMapRecordsEmPKv(ptr noundef nonnull align 8 dereferenceable(132) %6, i64 noundef %9, ptr noundef nonnull %0)
  store ptr %10, ptr %2, align 8, !tbaa !31
  br label %11

11:                                               ; preds = %4, %1
  %12 = phi ptr [ %10, %4 ], [ %3, %1 ]
  ret ptr %12
}